target datalayout = "e-m:e-p270:32:32-p271:32:32-p272:64:64-i64:64-i128:128-f80:128-n8:16:32:64-S128"
target triple = "x86_64-pc-linux-gnu"

%struct.interface_stats_t = type { ptr, ptr, ptr, ptr, ptr, i64, i64, i64, i64, i64, i64, i64, i64 }
%struct.acct_gather_data = type { i64, i64, i64, i64, i64 }

; Function Attrs: nounwind uwtable
define internal i32 @_get_data(ptr noundef %0, ptr noundef %1) #0 {
  %3 = alloca ptr, align 8
  %4 = alloca ptr, align 8
  %5 = alloca ptr, align 8
  %6 = alloca ptr, align 8
  store ptr %0, ptr %3, align 8
  store ptr %1, ptr %4, align 8
  call void @llvm.lifetime.start.p0(i64 8, ptr %5) #6
  %7 = load ptr, ptr %3, align 8
  store ptr %7, ptr %5, align 8
  call void @llvm.lifetime.start.p0(i64 8, ptr %6) #6
  %8 = load ptr, ptr %4, align 8
  store ptr %8, ptr %6, align 8
  %9 = load ptr, ptr %5, align 8
  %10 = getelementptr inbounds nuw %struct.interface_stats_t, ptr %9, i32 0, i32 1
  %11 = load ptr, ptr %10, align 8
  %12 = load ptr, ptr %5, align 8
  %13 = getelementptr inbounds nuw %struct.interface_stats_t, ptr %12, i32 0, i32 5
  %14 = load i64, ptr %13, align 8
  %15 = call i64 @_load(ptr noundef %11, i64 noundef %14)
  %16 = load ptr, ptr %6, align 8
  %17 = getelementptr inbounds nuw %struct.acct_gather_data, ptr %16, i32 0, i32 1
  %18 = load i64, ptr %17, align 8
  %19 = add i64 %18, %15
  store i64 %19, ptr %17, align 8
  %20 = load ptr, ptr %5, align 8
  %21 = getelementptr inbounds nuw %struct.interface_stats_t, ptr %20, i32 0, i32 2
  %22 = load ptr, ptr %21, align 8
  %23 = load ptr, ptr %5, align 8
  %24 = getelementptr inbounds nuw %struct.interface_stats_t, ptr %23, i32 0, i32 6
  %25 = load i64, ptr %24, align 8
  %26 = call i64 @_load(ptr noundef %22, i64 noundef %25)
  %27 = load ptr, ptr %6, align 8
  %28 = getelementptr inbounds nuw %struct.acct_gather_data, ptr %27, i32 0, i32 2
  %29 = load i64, ptr %28, align 8
  %30 = add i64 %29, %26
  store i64 %30, ptr %28, align 8
  %31 = load ptr, ptr %5, align 8
  %32 = getelementptr inbounds nuw %struct.interface_stats_t, ptr %31, i32 0, i32 3
  %33 = load ptr, ptr %32, align 8
  %34 = load ptr, ptr %5, align 8
  %35 = getelementptr inbounds nuw %struct.interface_stats_t, ptr %34, i32 0, i32 7
  %36 = load i64, ptr %35, align 8
  %37 = call i64 @_load(ptr noundef %33, i64 noundef %36)
  %38 = load ptr, ptr %6, align 8
  %39 = getelementptr inbounds nuw %struct.acct_gather_data, ptr %38, i32 0, i32 3
  %40 = load i64, ptr %39, align 8
  %41 = add i64 %40, %37
  store i64 %41, ptr %39, align 8
  %42 = load ptr, ptr %5, align 8
  %43 = getelementptr inbounds nuw %struct.interface_stats_t, ptr %42, i32 0, i32 4
  %44 = load ptr, ptr %43, align 8
  %45 = load ptr, ptr %5, align 8
  %46 = getelementptr inbounds nuw %struct.interface_stats_t, ptr %45, i32 0, i32 8
  %47 = load i64, ptr %46, align 8
  %48 = call i64 @_load(ptr noundef %44, i64 noundef %47)
  %49 = load ptr, ptr %6, align 8
  %50 = getelementptr inbounds nuw %struct.acct_gather_data, ptr %49, i32 0, i32 4
  %51 = load i64, ptr %50, align 8
  %52 = add i64 %51, %48
  store i64 %52, ptr %50, align 8
  call void @llvm.lifetime.end.p0(i64 8, ptr %6) #6
  call void @llvm.lifetime.end.p0(i64 8, ptr %5) #6
  ret i32 0
}