; Function Attrs: nounwind uwtable
define internal noundef i32 @_get_data(ptr noundef readonly captures(none) %0, ptr noundef captures(none) %1) #0 {
  %3 = getelementptr inbounds nuw i8, ptr %0, i64 8
  %4 = load ptr, ptr %3, align 8
  %5 = getelementptr inbounds nuw i8, ptr %0, i64 40
  %6 = load i64, ptr %5, align 8
  %7 = tail call fastcc i64 @_load(ptr noundef %4, i64 noundef %6)
  %8 = getelementptr inbounds nuw i8, ptr %1, i64 8
  %9 = load i64, ptr %8, align 8
  %10 = add i64 %9, %7
  store i64 %10, ptr %8, align 8
  %11 = getelementptr inbounds nuw i8, ptr %0, i64 16
  %12 = load ptr, ptr %11, align 8
  %13 = getelementptr inbounds nuw i8, ptr %0, i64 48
  %14 = load i64, ptr %13, align 8
  %15 = tail call fastcc i64 @_load(ptr noundef %12, i64 noundef %14)
  %16 = getelementptr inbounds nuw i8, ptr %1, i64 16
  %17 = load i64, ptr %16, align 8
  %18 = add i64 %17, %15
  store i64 %18, ptr %16, align 8
  %19 = getelementptr inbounds nuw i8, ptr %0, i64 24
  %20 = load ptr, ptr %19, align 8
  %21 = getelementptr inbounds nuw i8, ptr %0, i64 56
  %22 = load i64, ptr %21, align 8
  %23 = tail call fastcc i64 @_load(ptr noundef %20, i64 noundef %22)
  %24 = getelementptr inbounds nuw i8, ptr %1, i64 24
  %25 = load i64, ptr %24, align 8
  %26 = add i64 %25, %23
  store i64 %26, ptr %24, align 8
  %27 = getelementptr inbounds nuw i8, ptr %0, i64 32
  %28 = load ptr, ptr %27, align 8
  %29 = getelementptr inbounds nuw i8, ptr %0, i64 64
  %30 = load i64, ptr %29, align 8
  %31 = tail call fastcc i64 @_load(ptr noundef %28, i64 noundef %30)
  %32 = getelementptr inbounds nuw i8, ptr %1, i64 32
  %33 = load i64, ptr %32, align 8
  %34 = add i64 %33, %31
  store i64 %34, ptr %32, align 8
  ret i32 0
}